target datalayout = "e-m:e-p270:32:32-p271:32:32-p272:64:64-i64:64-i128:128-f80:128-n8:16:32:64-S128"
target triple = "x86_64-pc-linux-gnu"

@.str = private unnamed_addr constant [37 x i8] c"cg-config-v1.0.0_aces-v1.3_ocio-v2.1\00", align 1
@.str.1 = private unnamed_addr constant [87 x i8] c"Academy Color Encoding System - CG Config [COLORSPACES v1.0.0] [ACES v1.3] [OCIO v2.1]\00", align 1
@.str.2 = private unnamed_addr constant [37 x i8] c"cg-config-v2.1.0_aces-v1.3_ocio-v2.3\00", align 1
@.str.3 = private unnamed_addr constant [87 x i8] c"Academy Color Encoding System - CG Config [COLORSPACES v2.0.0] [ACES v1.3] [OCIO v2.3]\00", align 1
@.str.4 = private unnamed_addr constant [37 x i8] c"cg-config-v2.2.0_aces-v1.3_ocio-v2.4\00", align 1
@.str.5 = private unnamed_addr constant [87 x i8] c"Academy Color Encoding System - CG Config [COLORSPACES v2.2.0] [ACES v1.3] [OCIO v2.4]\00", align 1

; Function Attrs: mustprogress nounwind uwtable
define hidden void @_ZN19OpenColorIO_v2_5dev8CGCONFIG8RegisterERNS_25BuiltinConfigRegistryImplE(ptr noundef nonnull align 8 dereferenceable(32) %0) #0 personality ptr @__gxx_personality_v0 {
  %2 = alloca ptr, align 8
  store ptr %0, ptr %2, align 8, !tbaa !3
  %3 = load ptr, ptr %2, align 8, !tbaa !3
  invoke void @_ZN19OpenColorIO_v2_5dev25BuiltinConfigRegistryImpl10addBuiltinEPKcS2_S2_b(ptr noundef nonnull align 8 dereferenceable(32) %3, ptr noundef @.str, ptr noundef @.str.1, ptr noundef @_ZL32CG_CONFIG_V100_ACES_V13_OCIO_V21, i1 noundef zeroext false)
          to label %4 unwind label %9

4:                                                ; preds = %1
  %5 = load ptr, ptr %2, align 8, !tbaa !3
  invoke void @_ZN19OpenColorIO_v2_5dev25BuiltinConfigRegistryImpl10addBuiltinEPKcS2_S2_b(ptr noundef nonnull align 8 dereferenceable(32) %5, ptr noundef @.str.2, ptr noundef @.str.3, ptr noundef @_ZL32CG_CONFIG_V210_ACES_V13_OCIO_V23, i1 noundef zeroext false)
          to label %6 unwind label %9

6:                                                ; preds = %4
  %7 = load ptr, ptr %2, align 8, !tbaa !3
  invoke void @_ZN19OpenColorIO_v2_5dev25BuiltinConfigRegistryImpl10addBuiltinEPKcS2_S2_b(ptr noundef nonnull align 8 dereferenceable(32) %7, ptr noundef @.str.4, ptr noundef @.str.5, ptr noundef @_ZL32CG_CONFIG_V220_ACES_V13_OCIO_V24, i1 noundef zeroext true)
          to label %8 unwind label %9

8:                                                ; preds = %6
  ret void

9:                                                ; preds = %6, %4, %1
  %10 = landingpad { ptr, i32 }
          catch ptr null
  %11 = extractvalue { ptr, i32 } %10, 0
  call void @__clang_call_terminate(ptr %11) #3
  unreachable
}